(dp1
S'xml'
p2
I01
sS'index'
p3
Vhttps://wiki.videolan.org/index.php
p4
sS'cookies'
p5
S''
sS'logs'
p6
I00
sS'xmlrevisions'
p7
I00
sS'curonly'
p8
I01
sS'exnamespaces'
p9
(lp10
sS'delay'
p11
I0
sS'images'
p12
I00
sS'api'
p13
Vhttps://wiki.videolan.org/api.php
p14
sS'http_method'
p15
S'POST'
p16
sS'namespaces'
p17
(lp18
S'all'
p19
asS'date'
p20
S'20200528'
p21
sS'path'
p22
V./wikivideolanorg-20200528-wikidump
p23
sS'retries'
p24
I5
sS'failfast'
p25
I00
s.